; Function Attrs: nofree norecurse nosync nounwind memory(argmem: read) uwtable
define range(i32 0, 2) i32 @nghttp2_check_method(ptr noundef readonly %0, i64 noundef %1) local_unnamed_addr #8 {
  %3 = icmp eq i64 %1, 0
  br i1 %3, label %.loopexit, label %.lr.ph.preheader

.lr.ph.preheader:                                 ; preds = %2
  %4 = getelementptr inbounds nuw i8, ptr %0, i64 %1
  br label %.lr.ph

5:                                                ; preds = %.lr.ph
  %6 = getelementptr inbounds nuw i8, ptr %.0711, i64 1
  %.not = icmp eq ptr %6, %4
  br i1 %.not, label %.loopexit, label %.lr.ph, !llvm.loop !12

.lr.ph:                                           ; preds = %.lr.ph.preheader, %5
  %.0711 = phi ptr [ %6, %5 ], [ %0, %.lr.ph.preheader ]
  %7 = load i8, ptr %.0711, align 1, !tbaa !3
  %8 = zext i8 %7 to i64
  %9 = getelementptr inbounds nuw [256 x i8], ptr @VALID_METHOD_CHARS, i64 0, i64 %8
  %10 = load i8, ptr %9, align 1, !tbaa !3
  %.not9 = icmp eq i8 %10, 0
  br i1 %.not9, label %.loopexit, label %5

.loopexit:                                        ; preds = %.lr.ph, %5, %2
  %.0 = phi i32 [ 0, %2 ], [ 0, %.lr.ph ], [ 1, %5 ]
  ret i32 %.0
}